target datalayout = "e-m:e-p270:32:32-p271:32:32-p272:64:64-i64:64-i128:128-f80:128-n8:16:32:64-S128"
target triple = "x86_64-pc-linux-gnu"

%"class.icu_77::number::Notation" = type { i32, %"union.icu_77::number::Notation::NotationUnion" }
%"union.icu_77::number::Notation::NotationUnion" = type { %"struct.icu_77::number::Notation::NotationUnion::ScientificSettings" }
%"struct.icu_77::number::Notation::NotationUnion::ScientificSettings" = type { i8, i8, i16, i32 }
%"class.icu_77::MeasureUnit" = type <{ %"class.icu_77::UObject", ptr, i16, i8, [5 x i8] }>
%"class.icu_77::UObject" = type { ptr }
%"class.icu_77::number::Precision" = type <{ i32, [4 x i8], %"union.icu_77::number::Precision::PrecisionUnion", i32, [4 x i8] }>
%"union.icu_77::number::Precision::PrecisionUnion" = type { %"struct.icu_77::number::Precision::PrecisionUnion::IncrementSettings" }
%"struct.icu_77::number::Precision::PrecisionUnion::IncrementSettings" = type { i64, i16, i16 }
%"class.icu_77::ConstChar16Ptr" = type { ptr }
%"struct.icu_77::number::impl::MacroProps" = type { [4 x i8], %"class.icu_77::number::Notation", %"class.icu_77::MeasureUnit", %"class.icu_77::MeasureUnit", %"class.icu_77::number::Precision", i32, %"class.icu_77::number::impl::Grouper", %"class.icu_77::number::impl::Padder", %"class.icu_77::number::IntegerWidth", %"class.icu_77::number::impl::SymbolsWrapper", i32, i32, i8, i32, %"class.icu_77::number::Scale", %"class.icu_77::number::impl::StringProp", %"class.icu_77::number::impl::StringProp", ptr, ptr, i32, [4 x i8], %"class.icu_77::Locale" }
%"class.icu_77::number::impl::Grouper" = type { i16, i16, i16, i32 }
%"class.icu_77::number::impl::Padder" = type { i32, %union.anon }
%union.anon = type { %struct.anon.1 }
%struct.anon.1 = type { i32, i32 }
%"class.icu_77::number::IntegerWidth" = type <{ %union.anon.2, i8, [3 x i8] }>
%union.anon.2 = type { i32, [4 x i8] }
%"class.icu_77::number::impl::SymbolsWrapper" = type { i32, %union.anon.4 }
%union.anon.4 = type { ptr }
%"class.icu_77::number::Scale" = type <{ i32, [4 x i8], ptr, i32, [4 x i8] }>
%"class.icu_77::number::impl::StringProp" = type { ptr, i16, i32 }
%"class.icu_77::Locale" = type <{ %"class.icu_77::UObject", [12 x i8], [6 x i8], [4 x i8], [2 x i8], i32, [4 x i8], ptr, [157 x i8], [3 x i8], ptr, i8, [7 x i8] }>
%struct.anon.3 = type { i16, i16, i8 }

@.str.51 = private unnamed_addr constant [20 x i16] [i16 105, i16 110, i16 116, i16 101, i16 103, i16 101, i16 114, i16 45, i16 119, i16 105, i16 100, i16 116, i16 104, i16 45, i16 116, i16 114, i16 117, i16 110, i16 99, i16 0], align 2
@.str.52 = private unnamed_addr constant [15 x i16] [i16 105, i16 110, i16 116, i16 101, i16 103, i16 101, i16 114, i16 45, i16 119, i16 105, i16 100, i16 116, i16 104, i16 47, i16 0], align 2

; Function Attrs: inlinehint mustprogress nounwind uwtable
define linkonce_odr noundef ptr @_ZNK6icu_7714ConstChar16Ptr3getEv(ptr noundef nonnull align 8 dereferenceable(8) %0) #2 comdat align 2 {
  %2 = alloca ptr, align 8
  store ptr %0, ptr %2, align 8, !tbaa !29
  %3 = load ptr, ptr %2, align 8
  %4 = getelementptr inbounds nuw %"class.icu_77::ConstChar16Ptr", ptr %3, i32 0, i32 0
  %5 = load ptr, ptr %4, align 8, !tbaa !33
  ret ptr %5
}

; Function Attrs: inlinehint mustprogress uwtable
define internal void @_ZN12_GLOBAL__N_114appendMultipleERN6icu_7713UnicodeStringEii(ptr noundef nonnull align 8 dereferenceable(64) %0, i32 noundef %1, i32 noundef %2) #3 {
  %4 = alloca ptr, align 8
  %5 = alloca i32, align 4
  %6 = alloca i32, align 4
  %7 = alloca i32, align 4
  store ptr %0, ptr %4, align 8, !tbaa !27
  store i32 %1, ptr %5, align 4, !tbaa !14
  store i32 %2, ptr %6, align 4, !tbaa !14
  call void @llvm.lifetime.start.p0(i64 4, ptr %7) #14
  store i32 0, ptr %7, align 4, !tbaa !14
  br label %8

8:                                                ; preds = %17, %3
  %9 = load i32, ptr %7, align 4, !tbaa !14
  %10 = load i32, ptr %6, align 4, !tbaa !14
  %11 = icmp slt i32 %9, %10
  br i1 %11, label %13, label %12

12:                                               ; preds = %8
  call void @llvm.lifetime.end.p0(i64 4, ptr %7) #14
  br label %20

13:                                               ; preds = %8
  %14 = load ptr, ptr %4, align 8, !tbaa !27
  %15 = load i32, ptr %5, align 4, !tbaa !14
  %16 = call noundef nonnull align 8 dereferenceable(64) ptr @_ZN6icu_7713UnicodeString6appendEi(ptr noundef nonnull align 8 dereferenceable(64) %14, i32 noundef %15)
  br label %17

17:                                               ; preds = %13
  %18 = load i32, ptr %7, align 4, !tbaa !14
  %19 = add nsw i32 %18, 1
  store i32 %19, ptr %7, align 4, !tbaa !14
  br label %8, !llvm.loop !199

20:                                               ; preds = %12
  ret void
}

; Function Attrs: inlinehint mustprogress uwtable
define linkonce_odr noundef nonnull align 8 dereferenceable(64) ptr @_ZN6icu_7713UnicodeString6appendEDs(ptr noundef nonnull align 8 dereferenceable(64) %0, i16 noundef zeroext %1) #3 comdat align 2 {
  %3 = alloca ptr, align 8
  %4 = alloca i16, align 2
  store ptr %0, ptr %3, align 8, !tbaa !27
  store i16 %1, ptr %4, align 2, !tbaa !49
  %5 = load ptr, ptr %3, align 8
  %6 = call noundef nonnull align 8 dereferenceable(64) ptr @_ZN6icu_7713UnicodeString8doAppendEPKDsii(ptr noundef nonnull align 8 dereferenceable(64) %5, ptr noundef %4, i32 noundef 0, i32 noundef 1)
  ret ptr %6
}

; Function Attrs: inlinehint mustprogress uwtable
define linkonce_odr noundef ptr @_ZNK6icu_7714ConstChar16PtrcvPKDsEv(ptr noundef nonnull align 8 dereferenceable(8) %0) #3 comdat align 2 {
  %2 = alloca ptr, align 8
  store ptr %0, ptr %2, align 8, !tbaa !29
  %3 = load ptr, ptr %2, align 8
  %4 = call noundef ptr @_ZNK6icu_7714ConstChar16Ptr3getEv(ptr noundef nonnull align 8 dereferenceable(8) %3)
  ret ptr %4
}

; Function Attrs: mustprogress uwtable
define void @_ZN6icu_776number4impl17blueprint_helpers26generateIntegerWidthOptionEiiRNS_13UnicodeStringER10UErrorCode(i32 noundef %0, i32 noundef %1, ptr noundef nonnull align 8 dereferenceable(64) %2, ptr noundef nonnull align 4 dereferenceable(4) %3) #1 {
  %5 = alloca i32, align 4
  %6 = alloca i32, align 4
  %7 = alloca ptr, align 8
  %8 = alloca ptr, align 8
  store i32 %0, ptr %5, align 4, !tbaa !14
  store i32 %1, ptr %6, align 4, !tbaa !14
  store ptr %2, ptr %7, align 8, !tbaa !27
  store ptr %3, ptr %8, align 8, !tbaa !22
  %9 = load i32, ptr %6, align 4, !tbaa !14
  %10 = icmp eq i32 %9, -1
  br i1 %10, label %11, label %14

11:                                               ; preds = %4
  %12 = load ptr, ptr %7, align 8, !tbaa !27
  %13 = call noundef nonnull align 8 dereferenceable(64) ptr @_ZN6icu_7713UnicodeString6appendEDs(ptr noundef nonnull align 8 dereferenceable(64) %12, i16 noundef zeroext 42)
  br label %19

14:                                               ; preds = %4
  %15 = load ptr, ptr %7, align 8, !tbaa !27
  %16 = load i32, ptr %6, align 4, !tbaa !14
  %17 = load i32, ptr %5, align 4, !tbaa !14
  %18 = sub nsw i32 %16, %17
  call void @_ZN12_GLOBAL__N_114appendMultipleERN6icu_7713UnicodeStringEii(ptr noundef nonnull align 8 dereferenceable(64) %15, i32 noundef 35, i32 noundef %18)
  br label %19

19:                                               ; preds = %14, %11
  %20 = load ptr, ptr %7, align 8, !tbaa !27
  %21 = load i32, ptr %5, align 4, !tbaa !14
  call void @_ZN12_GLOBAL__N_114appendMultipleERN6icu_7713UnicodeStringEii(ptr noundef nonnull align 8 dereferenceable(64) %20, i32 noundef 48, i32 noundef %21)
  ret void
}

; Function Attrs: inlinehint mustprogress nounwind uwtable
define linkonce_odr void @_ZN6icu_7714ConstChar16PtrD2Ev(ptr noundef nonnull align 8 dereferenceable(8) %0) unnamed_addr #2 comdat align 2 {
  %2 = alloca ptr, align 8
  store ptr %0, ptr %2, align 8, !tbaa !29
  %3 = load ptr, ptr %2, align 8
  %4 = getelementptr inbounds nuw %"class.icu_77::ConstChar16Ptr", ptr %3, i32 0, i32 0
  %5 = load ptr, ptr %4, align 8, !tbaa !33
  call void asm sideeffect "", "rm,~{memory},~{dirflag},~{fpsr},~{flags}"(ptr %5) #14, !srcloc !35
  ret void
}

; Function Attrs: inlinehint mustprogress uwtable
define linkonce_odr noundef nonnull align 8 dereferenceable(64) ptr @_ZN6icu_7713UnicodeString6appendENS_14ConstChar16PtrEi(ptr noundef nonnull align 8 dereferenceable(64) %0, ptr noundef %1, i32 noundef %2) #3 comdat align 2 {
  %4 = alloca ptr, align 8
  %5 = alloca ptr, align 8
  %6 = alloca i32, align 4
  store ptr %0, ptr %4, align 8, !tbaa !27
  store ptr %1, ptr %5, align 8, !tbaa !29
  store i32 %2, ptr %6, align 4, !tbaa !14
  %7 = load ptr, ptr %4, align 8
  %8 = call noundef ptr @_ZNK6icu_7714ConstChar16PtrcvPKDsEv(ptr noundef nonnull align 8 dereferenceable(8) %1)
  %9 = load i32, ptr %6, align 4, !tbaa !14
  %10 = call noundef nonnull align 8 dereferenceable(64) ptr @_ZN6icu_7713UnicodeString8doAppendEPKDsii(ptr noundef nonnull align 8 dereferenceable(64) %7, ptr noundef %8, i32 noundef 0, i32 noundef %9)
  ret ptr %10
}

; Function Attrs: inlinehint mustprogress nounwind uwtable
define linkonce_odr void @_ZN6icu_7714ConstChar16PtrC2EPKDs(ptr noundef nonnull align 8 dereferenceable(8) %0, ptr noundef %1) unnamed_addr #2 comdat align 2 {
  %3 = alloca ptr, align 8
  %4 = alloca ptr, align 8
  store ptr %0, ptr %3, align 8, !tbaa !29
  store ptr %1, ptr %4, align 8, !tbaa !31
  %5 = load ptr, ptr %3, align 8
  %6 = getelementptr inbounds nuw %"class.icu_77::ConstChar16Ptr", ptr %5, i32 0, i32 0
  %7 = load ptr, ptr %4, align 8, !tbaa !31
  store ptr %7, ptr %6, align 8, !tbaa !33
  ret void
}

; Function Attrs: mustprogress uwtable
define linkonce_odr { i64, i8 } @_ZN6icu_776number12IntegerWidth8standardEv() #1 comdat align 2 {
  %1 = alloca %"class.icu_77::number::IntegerWidth", align 4
  %2 = alloca { i64, i8 }, align 8
  %3 = alloca { i64, i8 }, align 8
  %4 = call { i64, i8 } @_ZN6icu_776number12IntegerWidth10zeroFillToEi(i32 noundef 1)
  store { i64, i8 } %4, ptr %2, align 8
  call void @llvm.memcpy.p0.p0.i64(ptr align 4 %1, ptr align 8 %2, i64 9, i1 false)
  call void @llvm.memcpy.p0.p0.i64(ptr align 8 %3, ptr align 4 %1, i64 12, i1 false)
  %5 = load { i64, i8 }, ptr %3, align 8
  ret { i64, i8 } %5
}

; Function Attrs: mustprogress nounwind uwtable
define linkonce_odr noundef zeroext i1 @_ZNK6icu_776number12IntegerWidth7isBogusEv(ptr noundef nonnull align 4 dereferenceable(9) %0) #0 comdat align 2 {
  %2 = alloca ptr, align 8
  store ptr %0, ptr %2, align 8, !tbaa !226
  %3 = load ptr, ptr %2, align 8
  %4 = getelementptr inbounds nuw %"class.icu_77::number::IntegerWidth", ptr %3, i32 0, i32 1
  %5 = load i8, ptr %4, align 4, !tbaa !228, !range !63, !noundef !64
  %6 = trunc i8 %5 to i1
  br i1 %6, label %13, label %7

7:                                                ; preds = %1
  %8 = getelementptr inbounds nuw %"class.icu_77::number::IntegerWidth", ptr %3, i32 0, i32 0
  %9 = getelementptr inbounds nuw %struct.anon.3, ptr %8, i32 0, i32 0
  %10 = load i16, ptr %9, align 4, !tbaa !69
  %11 = sext i16 %10 to i32
  %12 = icmp eq i32 %11, -1
  br label %13

13:                                               ; preds = %7, %1
  %14 = phi i1 [ false, %1 ], [ %12, %7 ]
  ret i1 %14
}

; Function Attrs: mustprogress uwtable
define noundef zeroext i1 @_ZN6icu_776number4impl16GeneratorHelpers12integerWidthERKNS1_10MacroPropsERNS_13UnicodeStringER10UErrorCode(ptr noundef nonnull align 8 dereferenceable(472) %0, ptr noundef nonnull align 8 dereferenceable(64) %1, ptr noundef nonnull align 4 dereferenceable(4) %2) #1 align 2 personality ptr @__gxx_personality_v0 {
  %4 = alloca i1, align 1
  %5 = alloca ptr, align 8
  %6 = alloca ptr, align 8
  %7 = alloca ptr, align 8
  %8 = alloca %"class.icu_77::number::IntegerWidth", align 4
  %9 = alloca { i64, i8 }, align 8
  %10 = alloca ptr, align 8
  %11 = alloca %"class.icu_77::ConstChar16Ptr", align 8
  %12 = alloca ptr, align 8
  %13 = alloca i32, align 4
  %14 = alloca i32, align 4
  %15 = alloca %"class.icu_77::ConstChar16Ptr", align 8
  store ptr %0, ptr %5, align 8, !tbaa !75
  store ptr %1, ptr %6, align 8, !tbaa !27
  store ptr %2, ptr %7, align 8, !tbaa !22
  %16 = load ptr, ptr %5, align 8, !tbaa !75
  %17 = getelementptr inbounds nuw %"struct.icu_77::number::impl::MacroProps", ptr %16, i32 0, i32 8
  %18 = getelementptr inbounds nuw %"class.icu_77::number::IntegerWidth", ptr %17, i32 0, i32 1
  %19 = load i8, ptr %18, align 4, !tbaa !187, !range !63, !noundef !64
  %20 = trunc i8 %19 to i1
  call void @llvm.lifetime.start.p0(i64 12, ptr %8) #14
  br i1 %20, label %30, label %21

21:                                               ; preds = %3
  %22 = load ptr, ptr %5, align 8, !tbaa !75
  %23 = getelementptr inbounds nuw %"struct.icu_77::number::impl::MacroProps", ptr %22, i32 0, i32 8
  %24 = call noundef zeroext i1 @_ZNK6icu_776number12IntegerWidth7isBogusEv(ptr noundef nonnull align 4 dereferenceable(9) %23)
  br i1 %24, label %30, label %25

25:                                               ; preds = %21
  %26 = load ptr, ptr %5, align 8, !tbaa !75
  %27 = getelementptr inbounds nuw %"struct.icu_77::number::impl::MacroProps", ptr %26, i32 0, i32 8
  %28 = call { i64, i8 } @_ZN6icu_776number12IntegerWidth8standardEv()
  store { i64, i8 } %28, ptr %9, align 8
  call void @llvm.memcpy.p0.p0.i64(ptr align 4 %8, ptr align 8 %9, i64 9, i1 false)
  %29 = call noundef zeroext i1 @_ZNK6icu_776number12IntegerWidtheqERKS1_(ptr noundef nonnull align 4 dereferenceable(9) %27, ptr noundef nonnull align 4 dereferenceable(9) %8)
  br label %30

30:                                               ; preds = %25, %21, %3
  %31 = phi i1 [ true, %21 ], [ true, %3 ], [ %29, %25 ]
  call void @llvm.lifetime.end.p0(i64 12, ptr %8) #14
  br i1 %31, label %32, label %33

32:                                               ; preds = %30
  store i1 false, ptr %4, align 1
  br label %76

33:                                               ; preds = %30
  call void @llvm.lifetime.start.p0(i64 8, ptr %10) #14
  %34 = load ptr, ptr %5, align 8, !tbaa !75
  %35 = getelementptr inbounds nuw %"struct.icu_77::number::impl::MacroProps", ptr %34, i32 0, i32 8
  %36 = getelementptr inbounds nuw %"class.icu_77::number::IntegerWidth", ptr %35, i32 0, i32 0
  store ptr %36, ptr %10, align 8, !tbaa !22
  %37 = load ptr, ptr %10, align 8, !tbaa !22
  %38 = getelementptr inbounds nuw %struct.anon.3, ptr %37, i32 0, i32 0
  %39 = load i16, ptr %38, align 2, !tbaa !188
  %40 = sext i16 %39 to i32
  %41 = icmp eq i32 %40, 0
  br i1 %41, label %42, label %56

42:                                               ; preds = %33
  %43 = load ptr, ptr %10, align 8, !tbaa !22
  %44 = getelementptr inbounds nuw %struct.anon.3, ptr %43, i32 0, i32 1
  %45 = load i16, ptr %44, align 2, !tbaa !190
  %46 = sext i16 %45 to i32
  %47 = icmp eq i32 %46, 0
  br i1 %47, label %48, label %56

48:                                               ; preds = %42
  %49 = load ptr, ptr %6, align 8, !tbaa !27
  call void @_ZN6icu_7714ConstChar16PtrC2EPKDs(ptr noundef nonnull align 8 dereferenceable(8) %11, ptr noundef @.str.51)
  %50 = invoke noundef nonnull align 8 dereferenceable(64) ptr @_ZN6icu_7713UnicodeString6appendENS_14ConstChar16PtrEi(ptr noundef nonnull align 8 dereferenceable(64) %49, ptr noundef %11, i32 noundef -1)
          to label %51 unwind label %52

51:                                               ; preds = %48
  call void @_ZN6icu_7714ConstChar16PtrD2Ev(ptr noundef nonnull align 8 dereferenceable(8) %11) #14
  store i1 true, ptr %4, align 1
  store i32 1, ptr %14, align 4
  br label %74

52:                                               ; preds = %48
  %53 = landingpad { ptr, i32 }
          cleanup
  %54 = extractvalue { ptr, i32 } %53, 0
  store ptr %54, ptr %12, align 8
  %55 = extractvalue { ptr, i32 } %53, 1
  store i32 %55, ptr %13, align 4
  call void @_ZN6icu_7714ConstChar16PtrD2Ev(ptr noundef nonnull align 8 dereferenceable(8) %11) #14
  br label %75

56:                                               ; preds = %42, %33
  %57 = load ptr, ptr %6, align 8, !tbaa !27
  call void @_ZN6icu_7714ConstChar16PtrC2EPKDs(ptr noundef nonnull align 8 dereferenceable(8) %15, ptr noundef @.str.52)
  %58 = invoke noundef nonnull align 8 dereferenceable(64) ptr @_ZN6icu_7713UnicodeString6appendENS_14ConstChar16PtrEi(ptr noundef nonnull align 8 dereferenceable(64) %57, ptr noundef %15, i32 noundef -1)
          to label %59 unwind label %70

59:                                               ; preds = %56
  call void @_ZN6icu_7714ConstChar16PtrD2Ev(ptr noundef nonnull align 8 dereferenceable(8) %15) #14
  %60 = load ptr, ptr %10, align 8, !tbaa !22
  %61 = getelementptr inbounds nuw %struct.anon.3, ptr %60, i32 0, i32 0
  %62 = load i16, ptr %61, align 2, !tbaa !188
  %63 = sext i16 %62 to i32
  %64 = load ptr, ptr %10, align 8, !tbaa !22
  %65 = getelementptr inbounds nuw %struct.anon.3, ptr %64, i32 0, i32 1
  %66 = load i16, ptr %65, align 2, !tbaa !190
  %67 = sext i16 %66 to i32
  %68 = load ptr, ptr %6, align 8, !tbaa !27
  %69 = load ptr, ptr %7, align 8, !tbaa !22
  call void @_ZN6icu_776number4impl17blueprint_helpers26generateIntegerWidthOptionEiiRNS_13UnicodeStringER10UErrorCode(i32 noundef %63, i32 noundef %67, ptr noundef nonnull align 8 dereferenceable(64) %68, ptr noundef nonnull align 4 dereferenceable(4) %69)
  store i1 true, ptr %4, align 1
  store i32 1, ptr %14, align 4
  br label %74

70:                                               ; preds = %56
  %71 = landingpad { ptr, i32 }
          cleanup
  %72 = extractvalue { ptr, i32 } %71, 0
  store ptr %72, ptr %12, align 8
  %73 = extractvalue { ptr, i32 } %71, 1
  store i32 %73, ptr %13, align 4
  call void @_ZN6icu_7714ConstChar16PtrD2Ev(ptr noundef nonnull align 8 dereferenceable(8) %15) #14
  br label %75

74:                                               ; preds = %59, %51
  call void @llvm.lifetime.end.p0(i64 8, ptr %10) #14
  br label %76

75:                                               ; preds = %70, %52
  call void @llvm.lifetime.end.p0(i64 8, ptr %10) #14
  br label %78

76:                                               ; preds = %74, %32
  %77 = load i1, ptr %4, align 1
  ret i1 %77

78:                                               ; preds = %75
  %79 = load ptr, ptr %12, align 8
  %80 = load i32, ptr %13, align 4
  %81 = insertvalue { ptr, i32 } poison, ptr %79, 0
  %82 = insertvalue { ptr, i32 } %81, i32 %80, 1
  resume { ptr, i32 } %82
}