; Function Attrs: mustprogress uwtable
define noundef zeroext i1 @_ZN6icu_776number4impl16GeneratorHelpers12integerWidthERKNS1_10MacroPropsERNS_13UnicodeStringER10UErrorCode(ptr noundef nonnull align 8 dereferenceable(472) %0, ptr noundef nonnull align 8 dereferenceable(64) %1, ptr nonnull readnone align 4 captures(none) %2) local_unnamed_addr #1 align 2 personality ptr @__gxx_personality_v0 {
  %4 = alloca i16, align 2
  %5 = alloca %"class.icu_77::number::IntegerWidth", align 8
  %6 = getelementptr inbounds nuw i8, ptr %0, i64 124
  %7 = getelementptr inbounds nuw i8, ptr %0, i64 132
  %8 = load i8, ptr %7, align 4, !tbaa !150, !range !88, !noundef !89
  %9 = trunc nuw i8 %8 to i1
  call void @llvm.lifetime.start.p0(i64 12, ptr nonnull %5) #18
  %10 = load i16, ptr %6, align 4
  %.not = icmp eq i16 %10, -1
  %or.cond26 = select i1 %9, i1 true, i1 %.not
  br i1 %or.cond26, label %.critedge, label %11

11:                                               ; preds = %3
  %12 = tail call { i64, i8 } @_ZN6icu_776number12IntegerWidth10zeroFillToEi(i32 noundef 1)
  %.fca.0.extract = extractvalue { i64, i8 } %12, 0
  %.fca.1.extract = extractvalue { i64, i8 } %12, 1
  store i64 %.fca.0.extract, ptr %5, align 8
  %.sroa.2.0..sroa_idx = getelementptr inbounds nuw i8, ptr %5, i64 8
  store i8 %.fca.1.extract, ptr %.sroa.2.0..sroa_idx, align 8
  %13 = call noundef zeroext i1 @_ZNK6icu_776number12IntegerWidtheqERKS1_(ptr noundef nonnull align 4 dereferenceable(9) %6, ptr noundef nonnull align 4 dereferenceable(9) %5)
  call void @llvm.lifetime.end.p0(i64 12, ptr nonnull %5) #18
  br i1 %13, label %_ZN6icu_776number4impl17blueprint_helpers26generateIntegerWidthOptionEiiRNS_13UnicodeStringER10UErrorCode.exit, label %14

.critedge:                                        ; preds = %3
  call void @llvm.lifetime.end.p0(i64 12, ptr nonnull %5) #18
  br label %_ZN6icu_776number4impl17blueprint_helpers26generateIntegerWidthOptionEiiRNS_13UnicodeStringER10UErrorCode.exit

14:                                               ; preds = %11
  %15 = load i16, ptr %6, align 4, !tbaa !151
  %16 = icmp eq i16 %15, 0
  %17 = getelementptr inbounds nuw i8, ptr %0, i64 126
  %18 = load i16, ptr %17, align 2
  %19 = icmp eq i16 %18, 0
  %or.cond = select i1 %16, i1 %19, i1 false
  br i1 %or.cond, label %20, label %24

20:                                               ; preds = %14
  %21 = invoke noundef nonnull align 8 dereferenceable(64) ptr @_ZN6icu_7713UnicodeString8doAppendEPKDsii(ptr noundef nonnull align 8 dereferenceable(64) %1, ptr noundef nonnull @.str.51, i32 noundef 0, i32 noundef -1)
          to label %_ZN6icu_7713UnicodeString6appendENS_14ConstChar16PtrEi.exit unwind label %22

_ZN6icu_7713UnicodeString6appendENS_14ConstChar16PtrEi.exit: ; preds = %20
  call void asm sideeffect "", "rm,~{memory},~{dirflag},~{fpsr},~{flags}"(ptr nonnull @.str.51) #18, !srcloc !15
  br label %_ZN6icu_776number4impl17blueprint_helpers26generateIntegerWidthOptionEiiRNS_13UnicodeStringER10UErrorCode.exit

22:                                               ; preds = %20
  %23 = landingpad { ptr, i32 }
          cleanup
  call void asm sideeffect "", "rm,~{memory},~{dirflag},~{fpsr},~{flags}"(ptr nonnull @.str.51) #18, !srcloc !15
  br label %43

24:                                               ; preds = %14
  %25 = invoke noundef nonnull align 8 dereferenceable(64) ptr @_ZN6icu_7713UnicodeString8doAppendEPKDsii(ptr noundef nonnull align 8 dereferenceable(64) %1, ptr noundef nonnull @.str.52, i32 noundef 0, i32 noundef -1)
          to label %_ZN6icu_7713UnicodeString6appendENS_14ConstChar16PtrEi.exit19 unwind label %41

_ZN6icu_7713UnicodeString6appendENS_14ConstChar16PtrEi.exit19: ; preds = %24
  call void asm sideeffect "", "rm,~{memory},~{dirflag},~{fpsr},~{flags}"(ptr nonnull @.str.52) #18, !srcloc !15
  %26 = load i16, ptr %6, align 4, !tbaa !151
  %27 = sext i16 %26 to i32
  %28 = load i16, ptr %17, align 2, !tbaa !153
  %29 = icmp eq i16 %28, -1
  br i1 %29, label %30, label %32

30:                                               ; preds = %_ZN6icu_7713UnicodeString6appendENS_14ConstChar16PtrEi.exit19
  call void @llvm.lifetime.start.p0(i64 2, ptr nonnull %4)
  store i16 42, ptr %4, align 2, !tbaa !19
  %31 = call noundef nonnull align 8 dereferenceable(64) ptr @_ZN6icu_7713UnicodeString8doAppendEPKDsii(ptr noundef nonnull align 8 dereferenceable(64) %1, ptr noundef nonnull %4, i32 noundef 0, i32 noundef 1)
  call void @llvm.lifetime.end.p0(i64 2, ptr nonnull %4)
  br label %_ZN12_GLOBAL__N_114appendMultipleERN6icu_7713UnicodeStringEii.exit.i

32:                                               ; preds = %_ZN6icu_7713UnicodeString6appendENS_14ConstChar16PtrEi.exit19
  %33 = sext i16 %28 to i32
  %34 = sub nsw i32 %33, %27
  %35 = icmp sgt i32 %34, 0
  br i1 %35, label %.lr.ph.i.i, label %_ZN12_GLOBAL__N_114appendMultipleERN6icu_7713UnicodeStringEii.exit.i

.lr.ph.i.i:                                       ; preds = %32, %.lr.ph.i.i
  %.04.i.i = phi i32 [ %37, %.lr.ph.i.i ], [ 0, %32 ]
  %36 = call noundef nonnull align 8 dereferenceable(64) ptr @_ZN6icu_7713UnicodeString6appendEi(ptr noundef nonnull align 8 dereferenceable(64) %1, i32 noundef 35)
  %37 = add nuw nsw i32 %.04.i.i, 1
  %exitcond.not.i.i = icmp eq i32 %37, %34
  br i1 %exitcond.not.i.i, label %_ZN12_GLOBAL__N_114appendMultipleERN6icu_7713UnicodeStringEii.exit.i, label %.lr.ph.i.i, !llvm.loop !131

_ZN12_GLOBAL__N_114appendMultipleERN6icu_7713UnicodeStringEii.exit.i: ; preds = %.lr.ph.i.i, %32, %30
  %38 = icmp sgt i16 %26, 0
  br i1 %38, label %.lr.ph.i6.i, label %_ZN6icu_776number4impl17blueprint_helpers26generateIntegerWidthOptionEiiRNS_13UnicodeStringER10UErrorCode.exit

.lr.ph.i6.i:                                      ; preds = %_ZN12_GLOBAL__N_114appendMultipleERN6icu_7713UnicodeStringEii.exit.i, %.lr.ph.i6.i
  %.04.i7.i = phi i32 [ %40, %.lr.ph.i6.i ], [ 0, %_ZN12_GLOBAL__N_114appendMultipleERN6icu_7713UnicodeStringEii.exit.i ]
  %39 = call noundef nonnull align 8 dereferenceable(64) ptr @_ZN6icu_7713UnicodeString6appendEi(ptr noundef nonnull align 8 dereferenceable(64) %1, i32 noundef 48)
  %40 = add nuw nsw i32 %.04.i7.i, 1
  %exitcond.not.i8.i = icmp eq i32 %40, %27
  br i1 %exitcond.not.i8.i, label %_ZN6icu_776number4impl17blueprint_helpers26generateIntegerWidthOptionEiiRNS_13UnicodeStringER10UErrorCode.exit, label %.lr.ph.i6.i, !llvm.loop !131

41:                                               ; preds = %24
  %42 = landingpad { ptr, i32 }
          cleanup
  call void asm sideeffect "", "rm,~{memory},~{dirflag},~{fpsr},~{flags}"(ptr nonnull @.str.52) #18, !srcloc !15
  br label %43

43:                                               ; preds = %41, %22
  %.pn = phi { ptr, i32 } [ %23, %22 ], [ %42, %41 ]
  resume { ptr, i32 } %.pn

_ZN6icu_776number4impl17blueprint_helpers26generateIntegerWidthOptionEiiRNS_13UnicodeStringER10UErrorCode.exit: ; preds = %.lr.ph.i6.i, %_ZN12_GLOBAL__N_114appendMultipleERN6icu_7713UnicodeStringEii.exit.i, %_ZN6icu_7713UnicodeString6appendENS_14ConstChar16PtrEi.exit, %11, %.critedge
  %.015 = phi i1 [ false, %.critedge ], [ false, %11 ], [ true, %_ZN6icu_7713UnicodeString6appendENS_14ConstChar16PtrEi.exit ], [ true, %_ZN12_GLOBAL__N_114appendMultipleERN6icu_7713UnicodeStringEii.exit.i ], [ true, %.lr.ph.i6.i ]
  ret i1 %.015
}